target datalayout = "e-m:e-p270:32:32-p271:32:32-p272:64:64-i64:64-i128:128-f80:128-n8:16:32:64-S128"
target triple = "x86_64-pc-linux-gnu"

%struct.expert_field = type { i32, i32 }
%struct._packet_info = type { ptr, ptr, i32, i32, %struct.nstime_t, %struct.nstime_t, %struct.nstime_t, i8, ptr, ptr, ptr, ptr, %struct._address, %struct._address, %struct._address, %struct._address, %struct._address, %struct._address, i32, ptr, i8, [3 x i8], %struct.anon, i32, i32, i32, i32, ptr, i8, ptr, ptr, i16, i16, i32, i32, i16, i32, i32, ptr, ptr, ptr, i8, i8, i16, i16, i16, i32, i16, i16, ptr, ptr, ptr, ptr, ptr, i32, i32 }
%struct.nstime_t = type { i64, i32 }
%struct._address = type { i32, i32, ptr, ptr }
%struct.anon = type { i8, [3 x i8] }

@ei_gsm_a_gm_extraneous_data = internal global %struct.expert_field zeroinitializer, align 4
@.str.83 = private unnamed_addr constant [1 x i8] zeroinitializer, align 1
@ei_gsm_a_gm_missing_mandatory_element = internal global %struct.expert_field zeroinitializer, align 4
@.str.1095 = private unnamed_addr constant [62 x i8] c"Missing Mandatory element %s%s, rest of dissection is suspect\00", align 1
@.str.1096 = private unnamed_addr constant [64 x i8] c"Missing Mandatory elements %s %s, rest of dissection is suspect\00", align 1

; Function Attrs: null_pointer_is_valid sspstrong uwtable
define internal void @dtap_gmm_service_req(ptr noundef %0, ptr noundef %1, ptr noundef %2, i32 noundef %3, i32 noundef %4) #1 {
  %6 = alloca ptr, align 8
  %7 = alloca ptr, align 8
  %8 = alloca ptr, align 8
  %9 = alloca i32, align 4
  %10 = alloca i32, align 4
  %11 = alloca i32, align 4
  %12 = alloca i32, align 4
  %13 = alloca i32, align 4
  %14 = alloca i32, align 4
  store ptr %0, ptr %6, align 8
  store ptr %1, ptr %7, align 8
  store ptr %2, ptr %8, align 8
  store i32 %3, ptr %9, align 4
  store i32 %4, ptr %10, align 4
  call void @llvm.lifetime.start.p0(i64 4, ptr %11) #6
  call void @llvm.lifetime.start.p0(i64 4, ptr %12) #6
  call void @llvm.lifetime.start.p0(i64 4, ptr %13) #6
  %15 = load i32, ptr %9, align 4
  store i32 %15, ptr %11, align 4
  %16 = load i32, ptr %10, align 4
  store i32 %16, ptr %13, align 4
  %17 = load ptr, ptr %8, align 8
  %18 = getelementptr inbounds nuw %struct._packet_info, ptr %17, i32 0, i32 37
  store i32 1, ptr %18, align 4
  %19 = load i32, ptr %13, align 4
  %20 = icmp sgt i32 %19, 0
  br i1 %20, label %21, label %36

21:                                               ; preds = %5
  %22 = load ptr, ptr %6, align 8
  %23 = load ptr, ptr %7, align 8
  %24 = load ptr, ptr %8, align 8
  %25 = load i32, ptr %11, align 4
  %26 = call zeroext i16 @elem_v_short(ptr noundef %22, ptr noundef %23, ptr noundef %24, i32 noundef 4, i32 noundef 1, i32 noundef %25, i32 noundef 1)
  %27 = load ptr, ptr %6, align 8
  %28 = load ptr, ptr %7, align 8
  %29 = load ptr, ptr %8, align 8
  %30 = load i32, ptr %11, align 4
  %31 = call zeroext i16 @elem_v_short(ptr noundef %27, ptr noundef %28, ptr noundef %29, i32 noundef 5, i32 noundef 24, i32 noundef %30, i32 noundef 2)
  %32 = load i32, ptr %11, align 4
  %33 = add i32 %32, 1
  store i32 %33, ptr %11, align 4
  %34 = load i32, ptr %13, align 4
  %35 = add i32 %34, -1
  store i32 %35, ptr %13, align 4
  br label %44

36:                                               ; preds = %5
  %37 = load ptr, ptr %7, align 8
  %38 = load ptr, ptr %8, align 8
  %39 = load ptr, ptr %6, align 8
  %40 = load i32, ptr %11, align 4
  %41 = call ptr @get_gsm_a_msg_string(i32 noundef 4, i32 noundef 1)
  %42 = call ptr @get_gsm_a_msg_string(i32 noundef 5, i32 noundef 24)
  %43 = call ptr (ptr, ptr, ptr, ptr, i32, i32, ptr, ...) @proto_tree_add_expert_format(ptr noundef %37, ptr noundef %38, ptr noundef @ei_gsm_a_gm_missing_mandatory_element, ptr noundef %39, i32 noundef %40, i32 noundef 0, ptr noundef @.str.1096, ptr noundef %41, ptr noundef %42)
  br label %44

44:                                               ; preds = %36, %21
  %45 = load i32, ptr %13, align 4
  %46 = icmp sgt i32 %45, 0
  br i1 %46, label %47, label %63

47:                                               ; preds = %44
  %48 = load ptr, ptr %6, align 8
  %49 = load ptr, ptr %7, align 8
  %50 = load ptr, ptr %8, align 8
  %51 = load i32, ptr %11, align 4
  %52 = load i32, ptr %13, align 4
  %53 = call zeroext i16 @elem_lv(ptr noundef %48, ptr noundef %49, ptr noundef %50, i32 noundef 4, i32 noundef 3, i32 noundef %51, i32 noundef %52, ptr noundef null)
  %54 = zext i16 %53 to i32
  store i32 %54, ptr %12, align 4
  %55 = icmp ugt i32 %54, 0
  br i1 %55, label %56, label %63

56:                                               ; preds = %47
  %57 = load i32, ptr %12, align 4
  %58 = load i32, ptr %11, align 4
  %59 = add i32 %58, %57
  store i32 %59, ptr %11, align 4
  %60 = load i32, ptr %12, align 4
  %61 = load i32, ptr %13, align 4
  %62 = sub i32 %61, %60
  store i32 %62, ptr %13, align 4
  br label %70

63:                                               ; preds = %47, %44
  %64 = load ptr, ptr %7, align 8
  %65 = load ptr, ptr %8, align 8
  %66 = load ptr, ptr %6, align 8
  %67 = load i32, ptr %11, align 4
  %68 = call ptr @get_gsm_a_msg_string(i32 noundef 4, i32 noundef 3)
  %69 = call ptr (ptr, ptr, ptr, ptr, i32, i32, ptr, ...) @proto_tree_add_expert_format(ptr noundef %64, ptr noundef %65, ptr noundef @ei_gsm_a_gm_missing_mandatory_element, ptr noundef %66, i32 noundef %67, i32 noundef 0, ptr noundef @.str.1095, ptr noundef %68, ptr noundef @.str.83)
  br label %70

70:                                               ; preds = %63, %56
  %71 = load i32, ptr %13, align 4
  %72 = icmp sle i32 %71, 0
  br i1 %72, label %73, label %74

73:                                               ; preds = %70
  store i32 1, ptr %14, align 4
  br label %165

74:                                               ; preds = %70
  %75 = load ptr, ptr %6, align 8
  %76 = load ptr, ptr %7, align 8
  %77 = load ptr, ptr %8, align 8
  %78 = load i32, ptr %11, align 4
  %79 = load i32, ptr %13, align 4
  %80 = call zeroext i16 @elem_tlv(ptr noundef %75, ptr noundef %76, ptr noundef %77, i8 noundef zeroext 50, i32 noundef 5, i32 noundef 67, i32 noundef %78, i32 noundef %79, ptr noundef null)
  %81 = zext i16 %80 to i32
  store i32 %81, ptr %12, align 4
  %82 = icmp ugt i32 %81, 0
  br i1 %82, label %83, label %90

83:                                               ; preds = %74
  %84 = load i32, ptr %12, align 4
  %85 = load i32, ptr %11, align 4
  %86 = add i32 %85, %84
  store i32 %86, ptr %11, align 4
  %87 = load i32, ptr %12, align 4
  %88 = load i32, ptr %13, align 4
  %89 = sub i32 %88, %87
  store i32 %89, ptr %13, align 4
  br label %90

90:                                               ; preds = %83, %74
  %91 = load i32, ptr %13, align 4
  %92 = icmp sle i32 %91, 0
  br i1 %92, label %93, label %94

93:                                               ; preds = %90
  store i32 1, ptr %14, align 4
  br label %165

94:                                               ; preds = %90
  %95 = load ptr, ptr %6, align 8
  %96 = load ptr, ptr %7, align 8
  %97 = load ptr, ptr %8, align 8
  %98 = load i32, ptr %11, align 4
  %99 = load i32, ptr %13, align 4
  %100 = call zeroext i16 @elem_tlv(ptr noundef %95, ptr noundef %96, ptr noundef %97, i8 noundef zeroext 53, i32 noundef 5, i32 noundef 73, i32 noundef %98, i32 noundef %99, ptr noundef null)
  %101 = zext i16 %100 to i32
  store i32 %101, ptr %12, align 4
  %102 = icmp ugt i32 %101, 0
  br i1 %102, label %103, label %110

103:                                              ; preds = %94
  %104 = load i32, ptr %12, align 4
  %105 = load i32, ptr %11, align 4
  %106 = add i32 %105, %104
  store i32 %106, ptr %11, align 4
  %107 = load i32, ptr %12, align 4
  %108 = load i32, ptr %13, align 4
  %109 = sub i32 %108, %107
  store i32 %109, ptr %13, align 4
  br label %110

110:                                              ; preds = %103, %94
  %111 = load i32, ptr %13, align 4
  %112 = icmp sle i32 %111, 0
  br i1 %112, label %113, label %114

113:                                              ; preds = %110
  store i32 1, ptr %14, align 4
  br label %165

114:                                              ; preds = %110
  %115 = load ptr, ptr %6, align 8
  %116 = load ptr, ptr %7, align 8
  %117 = load ptr, ptr %8, align 8
  %118 = load i32, ptr %11, align 4
  %119 = load i32, ptr %13, align 4
  %120 = call zeroext i16 @elem_tlv(ptr noundef %115, ptr noundef %116, ptr noundef %117, i8 noundef zeroext 54, i32 noundef 5, i32 noundef 74, i32 noundef %118, i32 noundef %119, ptr noundef null)
  %121 = zext i16 %120 to i32
  store i32 %121, ptr %12, align 4
  %122 = icmp ugt i32 %121, 0
  br i1 %122, label %123, label %130

123:                                              ; preds = %114
  %124 = load i32, ptr %12, align 4
  %125 = load i32, ptr %11, align 4
  %126 = add i32 %125, %124
  store i32 %126, ptr %11, align 4
  %127 = load i32, ptr %12, align 4
  %128 = load i32, ptr %13, align 4
  %129 = sub i32 %128, %127
  store i32 %129, ptr %13, align 4
  br label %130

130:                                              ; preds = %123, %114
  %131 = load i32, ptr %13, align 4
  %132 = icmp sle i32 %131, 0
  br i1 %132, label %133, label %134

133:                                              ; preds = %130
  store i32 1, ptr %14, align 4
  br label %165

134:                                              ; preds = %130
  %135 = load ptr, ptr %6, align 8
  %136 = load ptr, ptr %7, align 8
  %137 = load ptr, ptr %8, align 8
  %138 = load i32, ptr %11, align 4
  %139 = call zeroext i16 @elem_tv_short(ptr noundef %135, ptr noundef %136, ptr noundef %137, i8 noundef zeroext -48, i32 noundef 5, i32 noundef 75, i32 noundef %138, ptr noundef null)
  %140 = zext i16 %139 to i32
  store i32 %140, ptr %12, align 4
  %141 = icmp ugt i32 %140, 0
  br i1 %141, label %142, label %149

142:                                              ; preds = %134
  %143 = load i32, ptr %12, align 4
  %144 = load i32, ptr %11, align 4
  %145 = add i32 %144, %143
  store i32 %145, ptr %11, align 4
  %146 = load i32, ptr %12, align 4
  %147 = load i32, ptr %13, align 4
  %148 = sub i32 %147, %146
  store i32 %148, ptr %13, align 4
  br label %149

149:                                              ; preds = %142, %134
  %150 = load i32, ptr %13, align 4
  %151 = icmp ugt i32 %150, 0
  br i1 %151, label %152, label %164

152:                                              ; preds = %149
  %153 = load ptr, ptr %7, align 8
  %154 = load ptr, ptr %8, align 8
  %155 = load ptr, ptr %6, align 8
  %156 = load i32, ptr %11, align 4
  %157 = load i32, ptr %13, align 4
  %158 = sub i32 %157, 0
  %159 = call ptr @proto_tree_add_expert(ptr noundef %153, ptr noundef %154, ptr noundef @ei_gsm_a_gm_extraneous_data, ptr noundef %155, i32 noundef %156, i32 noundef %158)
  %160 = load i32, ptr %13, align 4
  %161 = sub i32 %160, 0
  %162 = load i32, ptr %11, align 4
  %163 = add i32 %162, %161
  store i32 %163, ptr %11, align 4
  br label %164

164:                                              ; preds = %152, %149
  store i32 0, ptr %14, align 4
  br label %165

165:                                              ; preds = %164, %133, %113, %93, %73
  call void @llvm.lifetime.end.p0(i64 4, ptr %13) #6
  call void @llvm.lifetime.end.p0(i64 4, ptr %12) #6
  call void @llvm.lifetime.end.p0(i64 4, ptr %11) #6
  %166 = load i32, ptr %14, align 4
  switch i32 %166, label %168 [
    i32 0, label %167
    i32 1, label %167
  ]

167:                                              ; preds = %165, %165
  ret void

168:                                              ; preds = %165
  unreachable
}