; Function Attrs: null_pointer_is_valid sspstrong uwtable
define internal void @dtap_gmm_service_req(ptr noundef %0, ptr noundef %1, ptr noundef initializes((348, 352)) %2, i32 noundef %3, i32 noundef %4) #1 {
  %6 = getelementptr inbounds nuw i8, ptr %2, i64 348
  store i32 1, ptr %6, align 4
  %7 = icmp sgt i32 %4, 0
  br i1 %7, label %11, label %.thread

.thread:                                          ; preds = %5
  %8 = tail call ptr @get_gsm_a_msg_string(i32 noundef 4, i32 noundef 1)
  %9 = tail call ptr @get_gsm_a_msg_string(i32 noundef 5, i32 noundef 24)
  %10 = tail call ptr (ptr, ptr, ptr, ptr, i32, i32, ptr, ...) @proto_tree_add_expert_format(ptr noundef %1, ptr noundef %2, ptr noundef nonnull @ei_gsm_a_gm_missing_mandatory_element, ptr noundef %0, i32 noundef %3, i32 noundef 0, ptr noundef nonnull @.str.1096, ptr noundef %8, ptr noundef %9)
  br label %22

11:                                               ; preds = %5
  %12 = tail call zeroext i16 @elem_v_short(ptr noundef %0, ptr noundef %1, ptr noundef %2, i32 noundef 4, i32 noundef 1, i32 noundef %3, i32 noundef 1)
  %13 = tail call zeroext i16 @elem_v_short(ptr noundef %0, ptr noundef %1, ptr noundef %2, i32 noundef 5, i32 noundef 24, i32 noundef %3, i32 noundef 2)
  %14 = add i32 %3, 1
  %15 = add nsw i32 %4, -1
  %.not100 = icmp eq i32 %15, 0
  br i1 %.not100, label %22, label %16

16:                                               ; preds = %11
  %17 = tail call zeroext i16 @elem_lv(ptr noundef %0, ptr noundef %1, ptr noundef %2, i32 noundef 4, i32 noundef 3, i32 noundef %14, i32 noundef %15, ptr noundef null)
  %.not = icmp eq i16 %17, 0
  br i1 %.not, label %22, label %18

18:                                               ; preds = %16
  %19 = zext i16 %17 to i32
  %20 = add i32 %14, %19
  %21 = sub nsw i32 %15, %19
  br label %25

22:                                               ; preds = %.thread, %16, %11
  %.099 = phi i32 [ %4, %.thread ], [ %15, %16 ], [ 0, %11 ]
  %.07898 = phi i32 [ %3, %.thread ], [ %14, %16 ], [ %14, %11 ]
  %23 = tail call ptr @get_gsm_a_msg_string(i32 noundef 4, i32 noundef 3)
  %24 = tail call ptr (ptr, ptr, ptr, ptr, i32, i32, ptr, ...) @proto_tree_add_expert_format(ptr noundef %1, ptr noundef %2, ptr noundef nonnull @ei_gsm_a_gm_missing_mandatory_element, ptr noundef %0, i32 noundef %.07898, i32 noundef 0, ptr noundef nonnull @.str.1095, ptr noundef %23, ptr noundef nonnull @.str.83)
  br label %25

25:                                               ; preds = %22, %18
  %.179 = phi i32 [ %20, %18 ], [ %.07898, %22 ]
  %.1 = phi i32 [ %21, %18 ], [ %.099, %22 ]
  %26 = icmp slt i32 %.1, 1
  br i1 %26, label %52, label %27

27:                                               ; preds = %25
  %28 = tail call zeroext i16 @elem_tlv(ptr noundef %0, ptr noundef %1, ptr noundef %2, i8 noundef zeroext 50, i32 noundef 5, i32 noundef 67, i32 noundef %.179, i32 noundef %.1, ptr noundef null)
  %29 = zext i16 %28 to i32
  %30 = sub nsw i32 %.1, %29
  %31 = icmp slt i32 %30, 1
  br i1 %31, label %52, label %32

32:                                               ; preds = %27
  %33 = add i32 %.179, %29
  %34 = tail call zeroext i16 @elem_tlv(ptr noundef %0, ptr noundef %1, ptr noundef %2, i8 noundef zeroext 53, i32 noundef 5, i32 noundef 73, i32 noundef %33, i32 noundef %30, ptr noundef null)
  %35 = zext i16 %34 to i32
  %36 = sub nsw i32 %30, %35
  %37 = icmp slt i32 %36, 1
  br i1 %37, label %52, label %38

38:                                               ; preds = %32
  %39 = add i32 %33, %35
  %40 = tail call zeroext i16 @elem_tlv(ptr noundef %0, ptr noundef %1, ptr noundef %2, i8 noundef zeroext 54, i32 noundef 5, i32 noundef 74, i32 noundef %39, i32 noundef %36, ptr noundef null)
  %41 = zext i16 %40 to i32
  %42 = sub nsw i32 %36, %41
  %43 = icmp slt i32 %42, 1
  br i1 %43, label %52, label %44

44:                                               ; preds = %38
  %45 = add i32 %39, %41
  %46 = tail call zeroext i16 @elem_tv_short(ptr noundef %0, ptr noundef %1, ptr noundef %2, i8 noundef zeroext -48, i32 noundef 5, i32 noundef 75, i32 noundef %45, ptr noundef null)
  %47 = zext i16 %46 to i32
  %.not95 = icmp eq i32 %42, %47
  br i1 %.not95, label %52, label %48

48:                                               ; preds = %44
  %49 = sub nsw i32 %42, %47
  %50 = add i32 %45, %47
  %51 = tail call ptr @proto_tree_add_expert(ptr noundef %1, ptr noundef %2, ptr noundef nonnull @ei_gsm_a_gm_extraneous_data, ptr noundef %0, i32 noundef %50, i32 noundef %49)
  br label %52

52:                                               ; preds = %44, %48, %38, %32, %27, %25
  ret void
}